target datalayout = "e-m:e-p270:32:32-p271:32:32-p272:64:64-i64:64-i128:128-f80:128-n8:16:32:64-S128"
target triple = "x86_64-pc-linux-gnu"

%struct.coll_env = type { ptr, %struct.coll_env_coll, i32 }
%struct.coll_env_coll = type { %struct.tMPI_Atomic, %struct.tMPI_Atomic, ptr }
%struct.tMPI_Atomic = type { i32, [60 x i8] }
%struct.coll_env_thread = type { %struct.tMPI_Atomic, %struct.tMPI_Atomic, i32, ptr, ptr, ptr, %struct.tMPI_Event_t, %struct.tMPI_Event_t, ptr }
%struct.tMPI_Event_t = type { %struct.tMPI_Atomic, i32 }

@TMPI_COMM_WORLD = external global ptr, align 8

; Function Attrs: inlinehint mustprogress nounwind uwtable
define internal noundef i32 @_ZL21tMPI_Atomic_fetch_addP11tMPI_Atomici(ptr noundef %0, i32 noundef %1) #6 {
  %3 = alloca ptr, align 8
  %4 = alloca i32, align 4
  store ptr %0, ptr %3, align 8, !tbaa !68
  store volatile i32 %1, ptr %4, align 4, !tbaa !8
  %5 = load ptr, ptr %3, align 8, !tbaa !68
  %6 = getelementptr inbounds nuw %struct.tMPI_Atomic, ptr %5, i32 0, i32 0
  %7 = load volatile i32, ptr %4, align 4, !tbaa !8
  %8 = atomicrmw add ptr %6, i32 %7 seq_cst, align 4
  ret i32 %8
}

; Function Attrs: mustprogress uwtable
define void @_Z14tMPI_Mult_recvP10tmpi_comm_P8coll_enviiiP14tmpi_datatype_mPvPi(ptr noundef %0, ptr noundef %1, i32 noundef %2, i32 noundef %3, i32 noundef %4, ptr noundef %5, i64 noundef %6, ptr noundef %7, ptr noundef %8) #0 {
  %10 = alloca ptr, align 8
  %11 = alloca ptr, align 8
  %12 = alloca i32, align 4
  %13 = alloca i32, align 4
  %14 = alloca i32, align 4
  %15 = alloca ptr, align 8
  %16 = alloca i64, align 8
  %17 = alloca ptr, align 8
  %18 = alloca ptr, align 8
  %19 = alloca i64, align 8
  %20 = alloca ptr, align 8
  %21 = alloca i32, align 4
  %22 = alloca i32, align 4
  store ptr %0, ptr %10, align 8, !tbaa !43
  store ptr %1, ptr %11, align 8, !tbaa !3
  store i32 %2, ptr %12, align 4, !tbaa !8
  store i32 %3, ptr %13, align 4, !tbaa !8
  store i32 %4, ptr %14, align 4, !tbaa !8
  store ptr %5, ptr %15, align 8, !tbaa !62
  store i64 %6, ptr %16, align 8, !tbaa !63
  store ptr %7, ptr %17, align 8, !tbaa !65
  store ptr %8, ptr %18, align 8, !tbaa !45
  call void @llvm.lifetime.start.p0(i64 8, ptr %19) #7
  %23 = load ptr, ptr %11, align 8, !tbaa !3
  %24 = getelementptr inbounds nuw %struct.coll_env, ptr %23, i32 0, i32 0
  %25 = load ptr, ptr %24, align 8, !tbaa !10
  %26 = load i32, ptr %12, align 4, !tbaa !8
  %27 = sext i32 %26 to i64
  %28 = getelementptr inbounds %struct.coll_env_thread, ptr %25, i64 %27
  %29 = getelementptr inbounds nuw %struct.coll_env_thread, ptr %28, i32 0, i32 5
  %30 = load ptr, ptr %29, align 8, !tbaa !30
  %31 = load i32, ptr %13, align 4, !tbaa !8
  %32 = sext i32 %31 to i64
  %33 = getelementptr inbounds i64, ptr %30, i64 %32
  %34 = load i64, ptr %33, align 8, !tbaa !63
  store i64 %34, ptr %19, align 8, !tbaa !63
  %35 = load ptr, ptr %11, align 8, !tbaa !3
  %36 = getelementptr inbounds nuw %struct.coll_env, ptr %35, i32 0, i32 0
  %37 = load ptr, ptr %36, align 8, !tbaa !10
  %38 = load i32, ptr %12, align 4, !tbaa !8
  %39 = sext i32 %38 to i64
  %40 = getelementptr inbounds %struct.coll_env_thread, ptr %37, i64 %39
  %41 = getelementptr inbounds nuw %struct.coll_env_thread, ptr %40, i32 0, i32 3
  %42 = load ptr, ptr %41, align 8, !tbaa !66
  %43 = load ptr, ptr %15, align 8, !tbaa !62
  %44 = icmp ne ptr %42, %43
  br i1 %44, label %56, label %45

45:                                               ; preds = %9
  %46 = load ptr, ptr %11, align 8, !tbaa !3
  %47 = getelementptr inbounds nuw %struct.coll_env, ptr %46, i32 0, i32 0
  %48 = load ptr, ptr %47, align 8, !tbaa !10
  %49 = load i32, ptr %12, align 4, !tbaa !8
  %50 = sext i32 %49 to i64
  %51 = getelementptr inbounds %struct.coll_env_thread, ptr %48, i64 %50
  %52 = getelementptr inbounds nuw %struct.coll_env_thread, ptr %51, i32 0, i32 2
  %53 = load i32, ptr %52, align 8, !tbaa !67
  %54 = load i32, ptr %14, align 4, !tbaa !8
  %55 = icmp ne i32 %53, %54
  br i1 %55, label %56, label %60

56:                                               ; preds = %45, %9
  %57 = load ptr, ptr %10, align 8, !tbaa !43
  %58 = call noundef i32 @_Z10tMPI_ErrorP10tmpi_comm_i(ptr noundef %57, i32 noundef 18)
  %59 = load ptr, ptr %18, align 8, !tbaa !45
  store i32 %58, ptr %59, align 4, !tbaa !8
  br label %60

60:                                               ; preds = %56, %45
  %61 = load i64, ptr %19, align 8, !tbaa !63
  %62 = icmp ne i64 %61, 0
  br i1 %62, label %63, label %105

63:                                               ; preds = %60
  call void @llvm.lifetime.start.p0(i64 8, ptr %20) #7
  %64 = load i64, ptr %19, align 8, !tbaa !63
  %65 = load i64, ptr %16, align 8, !tbaa !63
  %66 = icmp ugt i64 %64, %65
  br i1 %66, label %67, label %71

67:                                               ; preds = %63
  %68 = load ptr, ptr %10, align 8, !tbaa !43
  %69 = call noundef i32 @_Z10tMPI_ErrorP10tmpi_comm_i(ptr noundef %68, i32 noundef 13)
  %70 = load ptr, ptr %18, align 8, !tbaa !45
  store i32 %69, ptr %70, align 4, !tbaa !8
  store i32 1, ptr %21, align 4
  br label %102

71:                                               ; preds = %63
  %72 = load ptr, ptr %11, align 8, !tbaa !3
  %73 = getelementptr inbounds nuw %struct.coll_env, ptr %72, i32 0, i32 0
  %74 = load ptr, ptr %73, align 8, !tbaa !10
  %75 = load i32, ptr %12, align 4, !tbaa !8
  %76 = sext i32 %75 to i64
  %77 = getelementptr inbounds %struct.coll_env_thread, ptr %74, i64 %76
  %78 = getelementptr inbounds nuw %struct.coll_env_thread, ptr %77, i32 0, i32 4
  %79 = load ptr, ptr %78, align 8, !tbaa !29
  %80 = load ptr, ptr %17, align 8, !tbaa !65
  %81 = icmp eq ptr %79, %80
  br i1 %81, label %82, label %86

82:                                               ; preds = %71
  %83 = load ptr, ptr @TMPI_COMM_WORLD, align 8, !tbaa !43
  %84 = call noundef i32 @_Z10tMPI_ErrorP10tmpi_comm_i(ptr noundef %83, i32 noundef 14)
  %85 = load ptr, ptr %18, align 8, !tbaa !45
  store i32 %84, ptr %85, align 4, !tbaa !8
  store i32 1, ptr %21, align 4
  br label %102

86:                                               ; preds = %71
  %87 = load ptr, ptr %11, align 8, !tbaa !3
  %88 = getelementptr inbounds nuw %struct.coll_env, ptr %87, i32 0, i32 0
  %89 = load ptr, ptr %88, align 8, !tbaa !10
  %90 = load i32, ptr %12, align 4, !tbaa !8
  %91 = sext i32 %90 to i64
  %92 = getelementptr inbounds %struct.coll_env_thread, ptr %89, i64 %91
  %93 = getelementptr inbounds nuw %struct.coll_env_thread, ptr %92, i32 0, i32 4
  %94 = load ptr, ptr %93, align 8, !tbaa !29
  %95 = load i32, ptr %13, align 4, !tbaa !8
  %96 = sext i32 %95 to i64
  %97 = getelementptr inbounds ptr, ptr %94, i64 %96
  %98 = load ptr, ptr %97, align 8, !tbaa !65
  store ptr %98, ptr %20, align 8, !tbaa !65
  %99 = load ptr, ptr %17, align 8, !tbaa !65
  %100 = load ptr, ptr %20, align 8, !tbaa !65
  %101 = load i64, ptr %19, align 8, !tbaa !63
  call void @llvm.memcpy.p0.p0.i64(ptr align 1 %99, ptr align 1 %100, i64 %101, i1 false)
  store i32 0, ptr %21, align 4
  br label %102

102:                                              ; preds = %86, %82, %67
  call void @llvm.lifetime.end.p0(i64 8, ptr %20) #7
  %103 = load i32, ptr %21, align 4
  switch i32 %103, label %127 [
    i32 0, label %104
  ]

104:                                              ; preds = %102
  br label %105

105:                                              ; preds = %104, %60
  call void @llvm.lifetime.start.p0(i64 4, ptr %22) #7
  fence seq_cst
  %106 = load ptr, ptr %11, align 8, !tbaa !3
  %107 = getelementptr inbounds nuw %struct.coll_env, ptr %106, i32 0, i32 0
  %108 = load ptr, ptr %107, align 8, !tbaa !10
  %109 = load i32, ptr %12, align 4, !tbaa !8
  %110 = sext i32 %109 to i64
  %111 = getelementptr inbounds %struct.coll_env_thread, ptr %108, i64 %110
  %112 = getelementptr inbounds nuw %struct.coll_env_thread, ptr %111, i32 0, i32 1
  %113 = call noundef i32 @_ZL21tMPI_Atomic_fetch_addP11tMPI_Atomici(ptr noundef %112, i32 noundef -1)
  store i32 %113, ptr %22, align 4, !tbaa !8
  %114 = load i32, ptr %22, align 4, !tbaa !8
  %115 = icmp sle i32 %114, 1
  br i1 %115, label %116, label %126

116:                                              ; preds = %105
  fence seq_cst
  %117 = load ptr, ptr %11, align 8, !tbaa !3
  %118 = getelementptr inbounds nuw %struct.coll_env, ptr %117, i32 0, i32 0
  %119 = load ptr, ptr %118, align 8, !tbaa !10
  %120 = load i32, ptr %12, align 4, !tbaa !8
  %121 = sext i32 %120 to i64
  %122 = getelementptr inbounds %struct.coll_env_thread, ptr %119, i64 %121
  %123 = getelementptr inbounds nuw %struct.coll_env_thread, ptr %122, i32 0, i32 6
  %124 = getelementptr inbounds nuw %struct.tMPI_Event_t, ptr %123, i32 0, i32 0
  %125 = call noundef i32 @_ZL21tMPI_Atomic_fetch_addP11tMPI_Atomici(ptr noundef %124, i32 noundef 1)
  br label %126

126:                                              ; preds = %116, %105
  call void @llvm.lifetime.end.p0(i64 4, ptr %22) #7
  store i32 0, ptr %21, align 4
  br label %127

127:                                              ; preds = %126, %102
  call void @llvm.lifetime.end.p0(i64 8, ptr %19) #7
  %128 = load i32, ptr %21, align 4
  switch i32 %128, label %130 [
    i32 0, label %129
    i32 1, label %129
  ]

129:                                              ; preds = %127, %127
  ret void

130:                                              ; preds = %127
  unreachable
}