; Function Attrs: mustprogress uwtable
define void @_Z14tMPI_Mult_recvP10tmpi_comm_P8coll_enviiiP14tmpi_datatype_mPvPi(ptr noundef %0, ptr noundef readonly captures(none) %1, i32 noundef %2, i32 noundef %3, i32 noundef %4, ptr noundef readnone %5, i64 noundef %6, ptr noundef writeonly %7, ptr noundef writeonly captures(none) %8) local_unnamed_addr #0 {
  %10 = alloca i32, align 4
  %11 = alloca i32, align 4
  %12 = load ptr, ptr %1, align 8, !tbaa !3
  %13 = sext i32 %2 to i64
  %14 = getelementptr inbounds %struct.coll_env_thread, ptr %12, i64 %13
  %15 = getelementptr inbounds nuw i8, ptr %14, i64 152
  %16 = load ptr, ptr %15, align 8, !tbaa !24
  %17 = sext i32 %3 to i64
  %18 = getelementptr inbounds i64, ptr %16, i64 %17
  %19 = load i64, ptr %18, align 8, !tbaa !57
  %20 = getelementptr inbounds nuw i8, ptr %14, i64 136
  %21 = load ptr, ptr %20, align 8, !tbaa !59
  %.not = icmp eq ptr %21, %5
  br i1 %.not, label %22, label %25

22:                                               ; preds = %9
  %23 = getelementptr inbounds nuw i8, ptr %14, i64 128
  %24 = load i32, ptr %23, align 8, !tbaa !60
  %.not34 = icmp eq i32 %24, %4
  br i1 %.not34, label %27, label %25

25:                                               ; preds = %22, %9
  %26 = tail call noundef i32 @_Z10tMPI_ErrorP10tmpi_comm_i(ptr noundef %0, i32 noundef 18)
  store i32 %26, ptr %8, align 4, !tbaa !55
  br label %27

27:                                               ; preds = %25, %22
  %.not35 = icmp eq i64 %19, 0
  br i1 %.not35, label %43, label %28

28:                                               ; preds = %27
  %29 = icmp ugt i64 %19, %6
  br i1 %29, label %30, label %32

30:                                               ; preds = %28
  %31 = tail call noundef i32 @_Z10tMPI_ErrorP10tmpi_comm_i(ptr noundef %0, i32 noundef 13)
  store i32 %31, ptr %8, align 4, !tbaa !55
  br label %.critedge

32:                                               ; preds = %28
  %33 = load ptr, ptr %1, align 8, !tbaa !3
  %34 = getelementptr inbounds %struct.coll_env_thread, ptr %33, i64 %13, i32 4
  %35 = load ptr, ptr %34, align 8, !tbaa !23
  %36 = icmp eq ptr %35, %7
  br i1 %36, label %37, label %40

37:                                               ; preds = %32
  %38 = load ptr, ptr @TMPI_COMM_WORLD, align 8, !tbaa !61
  %39 = tail call noundef i32 @_Z10tMPI_ErrorP10tmpi_comm_i(ptr noundef %38, i32 noundef 14)
  store i32 %39, ptr %8, align 4, !tbaa !55
  br label %.critedge

40:                                               ; preds = %32
  %41 = getelementptr inbounds ptr, ptr %35, i64 %17
  %42 = load ptr, ptr %41, align 8, !tbaa !62
  tail call void @llvm.memcpy.p0.p0.i64(ptr align 1 %7, ptr align 1 %42, i64 %19, i1 false)
  br label %43

43:                                               ; preds = %40, %27
  fence seq_cst
  %44 = load ptr, ptr %1, align 8, !tbaa !3
  %45 = getelementptr inbounds %struct.coll_env_thread, ptr %44, i64 %13, i32 1
  call void @llvm.lifetime.start.p0(i64 4, ptr nonnull %11)
  store volatile i32 -1, ptr %11, align 4, !tbaa !55
  %.0..0..0..0..0..0..i = load volatile i32, ptr %11, align 4, !tbaa !55
  %46 = atomicrmw add ptr %45, i32 %.0..0..0..0..0..0..i seq_cst, align 4
  call void @llvm.lifetime.end.p0(i64 4, ptr nonnull %11)
  %47 = icmp slt i32 %46, 2
  br i1 %47, label %48, label %.critedge

48:                                               ; preds = %43
  fence seq_cst
  %49 = load ptr, ptr %1, align 8, !tbaa !3
  %50 = getelementptr inbounds %struct.coll_env_thread, ptr %49, i64 %13, i32 6
  call void @llvm.lifetime.start.p0(i64 4, ptr nonnull %10)
  store volatile i32 1, ptr %10, align 4, !tbaa !55
  %.0..0..0..0..0..0..i36 = load volatile i32, ptr %10, align 4, !tbaa !55
  %51 = atomicrmw add ptr %50, i32 %.0..0..0..0..0..0..i36 seq_cst, align 4
  call void @llvm.lifetime.end.p0(i64 4, ptr nonnull %10)
  br label %.critedge

.critedge:                                        ; preds = %30, %37, %43, %48
  ret void
}